(lp0
((lp1
S'thatssorude you'
p2
aS'you trying'
p3
aS'trying to'
p4
aS'to get'
p5
aS'get into'
p6
aS'into obamas'
p7
aS'obamas face'
p8
aS'face last'
p9
aS'last night'
p10
aS'night romney'
p11
aS'romney because'
p12
aS'because your'
p13
aS'your getting'
p14
aS'getting mad'
p15
aS'mad that'
p16
aS'that hes'
p17
aS'hes the'
p18
aS'the better'
p19
aS'better man'
p20
aS'man for'
p21
aS'for the'
p22
aS'the job'
p23
aS'2'
p24
tp25
a.