(lp0
((lp1
S'president barack'
p2
aS'barack obama'
p3
aS'obama and'
p4
aS'and republican'
p5
aS'republican challenger'
p6
aS'challenger mitt'
p7
aS'mitt romney'
p8
aS'romney aggressively'
p9
aS'aggressively challenged'
p10
aS'challenged each'
p11
aS'each other'
p12
aS'other tuesday'
p13
aS'tuesday night'
p14
aS'night in'
p15
aS'in their'
p16
aS'their second'
p17
aS'second debate'
p18
aS'2'
p19
tp20
a((lp21
S'thatssorude'
p22
aS'you'
p23
aS'trying'
p24
aS'get'
p25
aS'into'
p26
aS'obamas'
p27
aS'face'
p28
aS'last'
p29
aS'night'
p30
aS'romney'
p31
aS'because'
p32
aS'your'
p33
aS'getting'
p34
aS'mad'
p35
aS'that'
p36
aS'hes'
p37
aS'the'
p38
aS'better'
p39
aS'man'
p40
aS'for'
p41
aS'the'
p42
aS'job'
p43
ag19
tp44
a.